target datalayout = "e-m:e-p270:32:32-p271:32:32-p272:64:64-i64:64-i128:128-f80:128-n8:16:32:64-S128"
target triple = "x86_64-pc-linux-gnu"

%struct.pmix_tma = type { ptr, ptr, ptr, ptr, ptr, ptr, ptr, ptr }
%struct.pmix_byte_object = type { ptr, i64 }

; Function Attrs: inlinehint nounwind uwtable
define internal void @pmix_tma_free(ptr noundef %0, ptr noundef %1) #1 {
  %3 = alloca ptr, align 8
  %4 = alloca ptr, align 8
  store ptr %0, ptr %3, align 8, !tbaa !8
  store ptr %1, ptr %4, align 8, !tbaa !51
  %5 = load ptr, ptr %3, align 8, !tbaa !8
  %6 = icmp ne ptr null, %5
  br i1 %6, label %7, label %13

7:                                                ; preds = %2
  %8 = load ptr, ptr %3, align 8, !tbaa !8
  %9 = getelementptr inbounds nuw %struct.pmix_tma, ptr %8, i32 0, i32 5
  %10 = load ptr, ptr %9, align 8, !tbaa !229
  %11 = load ptr, ptr %3, align 8, !tbaa !8
  %12 = load ptr, ptr %4, align 8, !tbaa !51
  call void %10(ptr noundef %11, ptr noundef %12)
  br label %15

13:                                               ; preds = %2
  %14 = load ptr, ptr %4, align 8, !tbaa !51
  call void @free(ptr noundef %14) #15
  br label %15

15:                                               ; preds = %13, %7
  ret void
}

; Function Attrs: inlinehint nounwind uwtable
define internal void @pmix_bfrops_base_tma_byte_object_destruct(ptr noundef %0, ptr noundef %1) #1 {
  %3 = alloca ptr, align 8
  %4 = alloca ptr, align 8
  store ptr %0, ptr %3, align 8, !tbaa !105
  store ptr %1, ptr %4, align 8, !tbaa !8
  %5 = load ptr, ptr %3, align 8, !tbaa !105
  %6 = getelementptr inbounds nuw %struct.pmix_byte_object, ptr %5, i32 0, i32 0
  %7 = load ptr, ptr %6, align 8, !tbaa !107
  %8 = icmp ne ptr null, %7
  br i1 %8, label %9, label %14

9:                                                ; preds = %2
  %10 = load ptr, ptr %4, align 8, !tbaa !8
  %11 = load ptr, ptr %3, align 8, !tbaa !105
  %12 = getelementptr inbounds nuw %struct.pmix_byte_object, ptr %11, i32 0, i32 0
  %13 = load ptr, ptr %12, align 8, !tbaa !107
  call void @pmix_tma_free(ptr noundef %10, ptr noundef %13)
  br label %14

14:                                               ; preds = %9, %2
  %15 = load ptr, ptr %3, align 8, !tbaa !105
  %16 = getelementptr inbounds nuw %struct.pmix_byte_object, ptr %15, i32 0, i32 0
  store ptr null, ptr %16, align 8, !tbaa !107
  %17 = load ptr, ptr %3, align 8, !tbaa !105
  %18 = getelementptr inbounds nuw %struct.pmix_byte_object, ptr %17, i32 0, i32 1
  store i64 0, ptr %18, align 8, !tbaa !109
  ret void
}

; Function Attrs: nounwind uwtable
define void @PMIx_Byte_object_destruct(ptr noundef %0) #0 {
  %2 = alloca ptr, align 8
  store ptr %0, ptr %2, align 8, !tbaa !105
  %3 = load ptr, ptr %2, align 8, !tbaa !105
  call void @pmix_bfrops_base_tma_byte_object_destruct(ptr noundef %3, ptr noundef null)
  ret void
}