; Function Attrs: mustprogress nounwind willreturn uwtable
define void @PMIx_Byte_object_destruct(ptr noundef captures(none) initializes((8, 16)) %0) local_unnamed_addr #16 {
  %2 = load ptr, ptr %0, align 8, !tbaa !93
  %.not.i = icmp eq ptr %2, null
  br i1 %.not.i, label %pmix_bfrops_base_tma_byte_object_destruct.exit, label %3

3:                                                ; preds = %1
  tail call void @free(ptr noundef nonnull %2) #44
  br label %pmix_bfrops_base_tma_byte_object_destruct.exit

pmix_bfrops_base_tma_byte_object_destruct.exit:   ; preds = %1, %3
  tail call void @llvm.memset.p0.i64(ptr noundef nonnull align 8 dereferenceable(16) %0, i8 0, i64 16, i1 false)
  ret void
}